target datalayout = "e-m:e-p270:32:32-p271:32:32-p272:64:64-i64:64-i128:128-f80:128-n8:16:32:64-S128"
target triple = "x86_64-pc-linux-gnu"

%struct.H5Z_cb_t = type { ptr, ptr }
%struct.H5T_vlen_alloc_info_t = type { ptr, ptr, ptr, ptr }
%struct.H5T_conv_cb_t = type { ptr, ptr }
%struct.H5CX_node_t = type { %struct.H5CX_t, ptr }
%struct.H5CX_t = type { i64, ptr, i64, ptr, i64, ptr, i64, ptr, i64, ptr, i64, ptr, i64, i32, i64, i8, ptr, i8, ptr, i8, i32, i8, [3 x double], i8, i64, i8, i32, i8, %struct.H5Z_cb_t, i8, ptr, i8, %struct.H5T_vlen_alloc_info_t, i8, %struct.H5T_conv_cb_t, i8, i32, i8, i8, i8, i32, i8, i8, i32, i8, i8, i32, i8, i32, i8, i64, i8, i8, i8, i8, i8, ptr, i8, ptr, i8, i32, i8, i32, i8, %struct.H5VL_connector_prop_t, i8, ptr, i8 }
%struct.H5VL_connector_prop_t = type { i64, ptr }

@H5P_LST_DATASET_XFER_ID_g = external global i64, align 8
@H5CX_head_g = internal global ptr null, align 8

; Function Attrs: nounwind uwtable
define void @H5CX_set_actual_selection_io_mode(i32 noundef %0) #0 {
  %2 = alloca i32, align 4
  %3 = alloca ptr, align 8
  store i32 %0, ptr %2, align 4
  store ptr null, ptr %3, align 8
  store ptr @H5CX_head_g, ptr %3, align 8
  %4 = load ptr, ptr %3, align 8
  %5 = load ptr, ptr %4, align 8
  %6 = getelementptr inbounds %struct.H5CX_node_t, ptr %5, i32 0, i32 0
  %7 = getelementptr inbounds %struct.H5CX_t, ptr %6, i32 0, i32 0
  %8 = load i64, ptr %7, align 8
  %9 = load i64, ptr @H5P_LST_DATASET_XFER_ID_g, align 8
  %10 = icmp ne i64 %8, %9
  br i1 %10, label %11, label %21

11:                                               ; preds = %1
  %12 = load i32, ptr %2, align 4
  %13 = load ptr, ptr %3, align 8
  %14 = load ptr, ptr %13, align 8
  %15 = getelementptr inbounds %struct.H5CX_node_t, ptr %14, i32 0, i32 0
  %16 = getelementptr inbounds %struct.H5CX_t, ptr %15, i32 0, i32 43
  store i32 %12, ptr %16, align 4
  %17 = load ptr, ptr %3, align 8
  %18 = load ptr, ptr %17, align 8
  %19 = getelementptr inbounds %struct.H5CX_node_t, ptr %18, i32 0, i32 0
  %20 = getelementptr inbounds %struct.H5CX_t, ptr %19, i32 0, i32 44
  store i8 1, ptr %20, align 8
  br label %21

21:                                               ; preds = %11, %1
  ret void
}