; Function Attrs: mustprogress nofree norecurse nosync nounwind willreturn memory(readwrite, inaccessiblemem: none) uwtable
define void @H5CX_set_actual_selection_io_mode(i32 noundef %0) local_unnamed_addr #9 {
  %2 = load ptr, ptr @H5CX_head_g, align 8
  %3 = load i64, ptr %2, align 8
  %4 = load i64, ptr @H5P_LST_DATASET_XFER_ID_g, align 8
  %.not = icmp eq i64 %3, %4
  br i1 %.not, label %8, label %5

5:                                                ; preds = %1
  %6 = getelementptr inbounds i8, ptr %2, i64 340
  store i32 %0, ptr %6, align 4
  %7 = getelementptr inbounds i8, ptr %2, i64 344
  store i8 1, ptr %7, align 8
  br label %8

8:                                                ; preds = %5, %1
  ret void
}